target datalayout = "e-m:e-p270:32:32-p271:32:32-p272:64:64-i64:64-i128:128-f80:128-n8:16:32:64-S128"
target triple = "x86_64-pc-linux-gnu"

%struct.ssl_connection_st = type { %struct.ssl_st, ptr, i32, ptr, ptr, ptr, i32, ptr, i32, i32, i32, i32, %struct.OSSL_TIME, %struct.OSSL_TIME, %struct.ossl_statem_st, i32, ptr, ptr, i64, i64, i64, %struct.ossl_quic_tls_callbacks_st, ptr, ptr, %struct.anon, ptr, ptr, ptr, i32, ptr, %struct.ssl_dane_st, ptr, ptr, ptr, ptr, i32, [64 x i8], [64 x i8], [64 x i8], [64 x i8], [64 x i8], [64 x i8], [64 x i8], [64 x i8], [64 x i8], [64 x i8], [64 x i8], [64 x i8], ptr, [64 x i8], i64, i32, i64, [32 x i8], ptr, ptr, ptr, i64, ptr, [32 x i8], i64, i32, ptr, ptr, i32, i32, ptr, ptr, ptr, ptr, ptr, i64, ptr, ptr, i64, i32, i32, i32, i64, i32, i32, i64, i64, i64, %struct.anon.1, ptr, i32, ptr, ptr, ptr, i32, ptr, ptr, ptr, i32, i32, i32, i32, ptr, i64, i32, ptr, %struct.srp_ctx_st, ptr, %struct.record_layer_st, ptr, ptr, ptr, ptr, i64, i32, i32, i32, i64, i64, i64, ptr, ptr, ptr, ptr, ptr, i64, ptr, i64, ptr, i64 }
%struct.ssl_st = type { i32, ptr, ptr, ptr, %struct.CRYPTO_REF_COUNT, ptr, %struct.crypto_ex_data_st }
%struct.CRYPTO_REF_COUNT = type { i32 }
%struct.crypto_ex_data_st = type { ptr, ptr }
%struct.OSSL_TIME = type { i64 }
%struct.ossl_statem_st = type { i32, i32, i32, i32, i32, i32, i32, i32, i32, i32, i32, i32, i32, ptr, ptr, ptr, i8 }
%struct.ossl_quic_tls_callbacks_st = type { ptr, ptr, ptr, ptr, ptr, ptr }
%struct.anon = type { i64, [32 x i8], [32 x i8], ptr, ptr, i32, i32, i32, i32, [2 x i8], i32, i32, i32, i32, %struct.anon.0, [64 x i8], i64, [64 x i8], i64, i32, i32, ptr, i64, ptr, i64, i32, i8, i8, i16, ptr, i16 }
%struct.anon.0 = type { [128 x i8], i64, [128 x i8], i64, i64, i32, ptr, ptr, [4 x ptr], [4 x i16], i64, i32, ptr, i64, ptr, i64, ptr, ptr, ptr, i32, i64, ptr, i32, ptr, i64, ptr, i64, ptr, i64, ptr, ptr, ptr, ptr, i64, i64, ptr, ptr, i32, i32, i32, i32 }
%struct.ssl_dane_st = type { ptr, ptr, ptr, ptr, ptr, i32, i32, i32, i64 }
%struct.anon.1 = type { [29 x i8], ptr, ptr, ptr, i32, ptr, i16, i32, %struct.anon.2, i32, i32, i64, ptr, i64, ptr, i64, ptr, i64, ptr, i64, ptr, i64, ptr, ptr, ptr, ptr, ptr, ptr, ptr, i64, ptr, i64, i32, i32, i32, i32, ptr, i64, i32, i8, i32, [4 x i32], i32, i8, i8, i8, i8 }
%struct.anon.2 = type { ptr, ptr, ptr, i64 }
%struct.srp_ctx_st = type { ptr, ptr, ptr, ptr, ptr, ptr, ptr, ptr, ptr, ptr, ptr, ptr, ptr, ptr, i32, i64 }
%struct.record_layer_st = type { ptr, ptr, ptr, ptr, ptr, ptr, ptr, ptr, i64, i32, i64, [4 x i8], i64, i64, i8, ptr, i32, ptr, ptr, ptr, i64, i64, i64, i64, [32 x %struct.tls_record_st] }
%struct.tls_record_st = type { ptr, i32, i8, ptr, ptr, i64, i64, i16, [8 x i8] }
%struct.ssl_method_st = type { i32, i32, i64, ptr, ptr, ptr, ptr, ptr, ptr, ptr, ptr, ptr, ptr, ptr, ptr, ptr, ptr, ptr, ptr, ptr, ptr, ptr, ptr, ptr, ptr, ptr, ptr, ptr, ptr, ptr, ptr, ptr }
%struct.ssl3_enc_method = type { ptr, ptr, ptr, ptr, ptr, i64, ptr, i64, ptr, ptr, i32, ptr, ptr, ptr }
%struct.ssl_session_st = type { i32, i64, [64 x i8], [512 x i8], i64, [32 x i8], i64, [32 x i8], ptr, ptr, i32, ptr, ptr, ptr, i64, %struct.OSSL_TIME, %struct.OSSL_TIME, %struct.OSSL_TIME, i32, ptr, i64, i32, %struct.crypto_ex_data_st, %struct.anon.3, ptr, ptr, i64, i32, ptr, ptr, ptr, %struct.CRYPTO_REF_COUNT }
%struct.anon.3 = type { ptr, ptr, i64, i64, i32, i32, ptr, i64, i8 }

@.str.1 = private unnamed_addr constant [36 x i8] c"../openssl/ssl/statem/statem_srvr.c\00", align 1
@__func__.ossl_statem_server_pre_work = private unnamed_addr constant [28 x i8] c"ossl_statem_server_pre_work\00", align 1

; Function Attrs: nounwind uwtable
define i32 @ossl_statem_server_pre_work(ptr noundef %0, i32 noundef %1) #0 {
  %3 = alloca i32, align 4
  %4 = alloca ptr, align 8
  %5 = alloca i32, align 4
  %6 = alloca ptr, align 8
  %7 = alloca ptr, align 8
  %8 = alloca i32, align 4
  store ptr %0, ptr %4, align 8, !tbaa !11
  store i32 %1, ptr %5, align 4, !tbaa !13
  call void @llvm.lifetime.start.p0(i64 8, ptr %6) #9
  %9 = load ptr, ptr %4, align 8, !tbaa !11
  %10 = getelementptr inbounds nuw %struct.ssl_connection_st, ptr %9, i32 0, i32 14
  store ptr %10, ptr %6, align 8, !tbaa !15
  call void @llvm.lifetime.start.p0(i64 8, ptr %7) #9
  %11 = load ptr, ptr %4, align 8, !tbaa !11
  %12 = getelementptr inbounds nuw %struct.ssl_connection_st, ptr %11, i32 0, i32 0
  store ptr %12, ptr %7, align 8, !tbaa !131
  %13 = load ptr, ptr %6, align 8, !tbaa !15
  %14 = getelementptr inbounds nuw %struct.ossl_statem_st, ptr %13, i32 0, i32 5
  %15 = load i32, ptr %14, align 4, !tbaa !83
  switch i32 %15, label %16 [
    i32 21, label %17
    i32 23, label %33
    i32 24, label %51
    i32 29, label %66
    i32 37, label %67
    i32 39, label %124
    i32 50, label %211
    i32 1, label %225
  ]

16:                                               ; preds = %2
  br label %229

17:                                               ; preds = %2
  %18 = load ptr, ptr %4, align 8, !tbaa !11
  %19 = getelementptr inbounds nuw %struct.ssl_connection_st, ptr %18, i32 0, i32 11
  store i32 0, ptr %19, align 4, !tbaa !132
  %20 = load ptr, ptr %4, align 8, !tbaa !11
  %21 = getelementptr inbounds nuw %struct.ssl_connection_st, ptr %20, i32 0, i32 0
  %22 = getelementptr inbounds nuw %struct.ssl_st, ptr %21, i32 0, i32 3
  %23 = load ptr, ptr %22, align 8, !tbaa !17
  %24 = getelementptr inbounds nuw %struct.ssl_method_st, ptr %23, i32 0, i32 28
  %25 = load ptr, ptr %24, align 8, !tbaa !77
  %26 = getelementptr inbounds nuw %struct.ssl3_enc_method, ptr %25, i32 0, i32 10
  %27 = load i32, ptr %26, align 8, !tbaa !80
  %28 = and i32 %27, 8
  %29 = icmp ne i32 %28, 0
  br i1 %29, label %30, label %32

30:                                               ; preds = %17
  %31 = load ptr, ptr %4, align 8, !tbaa !11
  call void @dtls1_clear_sent_buffer(ptr noundef %31)
  br label %32

32:                                               ; preds = %30, %17
  br label %229

33:                                               ; preds = %2
  %34 = load ptr, ptr %4, align 8, !tbaa !11
  %35 = getelementptr inbounds nuw %struct.ssl_connection_st, ptr %34, i32 0, i32 11
  store i32 0, ptr %35, align 4, !tbaa !132
  %36 = load ptr, ptr %4, align 8, !tbaa !11
  %37 = getelementptr inbounds nuw %struct.ssl_connection_st, ptr %36, i32 0, i32 0
  %38 = getelementptr inbounds nuw %struct.ssl_st, ptr %37, i32 0, i32 3
  %39 = load ptr, ptr %38, align 8, !tbaa !17
  %40 = getelementptr inbounds nuw %struct.ssl_method_st, ptr %39, i32 0, i32 28
  %41 = load ptr, ptr %40, align 8, !tbaa !77
  %42 = getelementptr inbounds nuw %struct.ssl3_enc_method, ptr %41, i32 0, i32 10
  %43 = load i32, ptr %42, align 8, !tbaa !80
  %44 = and i32 %43, 8
  %45 = icmp ne i32 %44, 0
  br i1 %45, label %46, label %50

46:                                               ; preds = %33
  %47 = load ptr, ptr %4, align 8, !tbaa !11
  call void @dtls1_clear_sent_buffer(ptr noundef %47)
  %48 = load ptr, ptr %6, align 8, !tbaa !15
  %49 = getelementptr inbounds nuw %struct.ossl_statem_st, ptr %48, i32 0, i32 12
  store i32 0, ptr %49, align 8, !tbaa !133
  br label %50

50:                                               ; preds = %46, %33
  br label %229

51:                                               ; preds = %2
  %52 = load ptr, ptr %4, align 8, !tbaa !11
  %53 = getelementptr inbounds nuw %struct.ssl_connection_st, ptr %52, i32 0, i32 0
  %54 = getelementptr inbounds nuw %struct.ssl_st, ptr %53, i32 0, i32 3
  %55 = load ptr, ptr %54, align 8, !tbaa !17
  %56 = getelementptr inbounds nuw %struct.ssl_method_st, ptr %55, i32 0, i32 28
  %57 = load ptr, ptr %56, align 8, !tbaa !77
  %58 = getelementptr inbounds nuw %struct.ssl3_enc_method, ptr %57, i32 0, i32 10
  %59 = load i32, ptr %58, align 8, !tbaa !80
  %60 = and i32 %59, 8
  %61 = icmp ne i32 %60, 0
  br i1 %61, label %62, label %65

62:                                               ; preds = %51
  %63 = load ptr, ptr %6, align 8, !tbaa !15
  %64 = getelementptr inbounds nuw %struct.ossl_statem_st, ptr %63, i32 0, i32 12
  store i32 1, ptr %64, align 8, !tbaa !133
  br label %65

65:                                               ; preds = %62, %51
  br label %229

66:                                               ; preds = %2
  store i32 2, ptr %3, align 4
  store i32 1, ptr %8, align 4
  br label %230

67:                                               ; preds = %2
  %68 = load ptr, ptr %4, align 8, !tbaa !11
  %69 = getelementptr inbounds nuw %struct.ssl_connection_st, ptr %68, i32 0, i32 0
  %70 = getelementptr inbounds nuw %struct.ssl_st, ptr %69, i32 0, i32 3
  %71 = load ptr, ptr %70, align 8, !tbaa !17
  %72 = getelementptr inbounds nuw %struct.ssl_method_st, ptr %71, i32 0, i32 28
  %73 = load ptr, ptr %72, align 8, !tbaa !77
  %74 = getelementptr inbounds nuw %struct.ssl3_enc_method, ptr %73, i32 0, i32 10
  %75 = load i32, ptr %74, align 8, !tbaa !80
  %76 = and i32 %75, 8
  %77 = icmp ne i32 %76, 0
  br i1 %77, label %109, label %78

78:                                               ; preds = %67
  %79 = load ptr, ptr %4, align 8, !tbaa !11
  %80 = getelementptr inbounds nuw %struct.ssl_connection_st, ptr %79, i32 0, i32 0
  %81 = getelementptr inbounds nuw %struct.ssl_st, ptr %80, i32 0, i32 3
  %82 = load ptr, ptr %81, align 8, !tbaa !17
  %83 = getelementptr inbounds nuw %struct.ssl_method_st, ptr %82, i32 0, i32 0
  %84 = load i32, ptr %83, align 8, !tbaa !82
  %85 = icmp sge i32 %84, 772
  br i1 %85, label %86, label %109

86:                                               ; preds = %78
  %87 = load ptr, ptr %4, align 8, !tbaa !11
  %88 = getelementptr inbounds nuw %struct.ssl_connection_st, ptr %87, i32 0, i32 0
  %89 = getelementptr inbounds nuw %struct.ssl_st, ptr %88, i32 0, i32 3
  %90 = load ptr, ptr %89, align 8, !tbaa !17
  %91 = getelementptr inbounds nuw %struct.ssl_method_st, ptr %90, i32 0, i32 0
  %92 = load i32, ptr %91, align 8, !tbaa !82
  %93 = icmp ne i32 %92, 65536
  br i1 %93, label %94, label %109

94:                                               ; preds = %86
  %95 = load ptr, ptr %4, align 8, !tbaa !11
  %96 = getelementptr inbounds nuw %struct.ssl_connection_st, ptr %95, i32 0, i32 114
  %97 = load i64, ptr %96, align 8, !tbaa !124
  %98 = icmp eq i64 %97, 0
  br i1 %98, label %99, label %109

99:                                               ; preds = %94
  %100 = load ptr, ptr %4, align 8, !tbaa !11
  %101 = getelementptr inbounds nuw %struct.ssl_connection_st, ptr %100, i32 0, i32 84
  %102 = getelementptr inbounds nuw %struct.anon.1, ptr %101, i32 0, i32 10
  %103 = load i32, ptr %102, align 4, !tbaa !121
  %104 = icmp eq i32 %103, 0
  br i1 %104, label %105, label %109

105:                                              ; preds = %99
  %106 = load ptr, ptr %4, align 8, !tbaa !11
  %107 = load i32, ptr %5, align 4, !tbaa !13
  %108 = call i32 @tls_finish_handshake(ptr noundef %106, i32 noundef %107, i32 noundef 0, i32 noundef 0)
  store i32 %108, ptr %3, align 4
  store i32 1, ptr %8, align 4
  br label %230

109:                                              ; preds = %99, %94, %86, %78, %67
  %110 = load ptr, ptr %4, align 8, !tbaa !11
  %111 = getelementptr inbounds nuw %struct.ssl_connection_st, ptr %110, i32 0, i32 0
  %112 = getelementptr inbounds nuw %struct.ssl_st, ptr %111, i32 0, i32 3
  %113 = load ptr, ptr %112, align 8, !tbaa !17
  %114 = getelementptr inbounds nuw %struct.ssl_method_st, ptr %113, i32 0, i32 28
  %115 = load ptr, ptr %114, align 8, !tbaa !77
  %116 = getelementptr inbounds nuw %struct.ssl3_enc_method, ptr %115, i32 0, i32 10
  %117 = load i32, ptr %116, align 8, !tbaa !80
  %118 = and i32 %117, 8
  %119 = icmp ne i32 %118, 0
  br i1 %119, label %120, label %123

120:                                              ; preds = %109
  %121 = load ptr, ptr %6, align 8, !tbaa !15
  %122 = getelementptr inbounds nuw %struct.ossl_statem_st, ptr %121, i32 0, i32 12
  store i32 0, ptr %122, align 8, !tbaa !133
  br label %123

123:                                              ; preds = %120, %109
  br label %229

124:                                              ; preds = %2
  %125 = load ptr, ptr %4, align 8, !tbaa !11
  %126 = getelementptr inbounds nuw %struct.ssl_connection_st, ptr %125, i32 0, i32 0
  %127 = getelementptr inbounds nuw %struct.ssl_st, ptr %126, i32 0, i32 3
  %128 = load ptr, ptr %127, align 8, !tbaa !17
  %129 = getelementptr inbounds nuw %struct.ssl_method_st, ptr %128, i32 0, i32 28
  %130 = load ptr, ptr %129, align 8, !tbaa !77
  %131 = getelementptr inbounds nuw %struct.ssl3_enc_method, ptr %130, i32 0, i32 10
  %132 = load i32, ptr %131, align 8, !tbaa !80
  %133 = and i32 %132, 8
  %134 = icmp ne i32 %133, 0
  br i1 %134, label %152, label %135

135:                                              ; preds = %124
  %136 = load ptr, ptr %4, align 8, !tbaa !11
  %137 = getelementptr inbounds nuw %struct.ssl_connection_st, ptr %136, i32 0, i32 0
  %138 = getelementptr inbounds nuw %struct.ssl_st, ptr %137, i32 0, i32 3
  %139 = load ptr, ptr %138, align 8, !tbaa !17
  %140 = getelementptr inbounds nuw %struct.ssl_method_st, ptr %139, i32 0, i32 0
  %141 = load i32, ptr %140, align 8, !tbaa !82
  %142 = icmp sge i32 %141, 772
  br i1 %142, label %143, label %152

143:                                              ; preds = %135
  %144 = load ptr, ptr %4, align 8, !tbaa !11
  %145 = getelementptr inbounds nuw %struct.ssl_connection_st, ptr %144, i32 0, i32 0
  %146 = getelementptr inbounds nuw %struct.ssl_st, ptr %145, i32 0, i32 3
  %147 = load ptr, ptr %146, align 8, !tbaa !17
  %148 = getelementptr inbounds nuw %struct.ssl_method_st, ptr %147, i32 0, i32 0
  %149 = load i32, ptr %148, align 8, !tbaa !82
  %150 = icmp ne i32 %149, 65536
  br i1 %150, label %151, label %152

151:                                              ; preds = %143
  br label %229

152:                                              ; preds = %143, %135, %124
  %153 = load ptr, ptr %4, align 8, !tbaa !11
  %154 = getelementptr inbounds nuw %struct.ssl_connection_st, ptr %153, i32 0, i32 54
  %155 = load ptr, ptr %154, align 8, !tbaa !97
  %156 = getelementptr inbounds nuw %struct.ssl_session_st, ptr %155, i32 0, i32 19
  %157 = load ptr, ptr %156, align 8, !tbaa !134
  %158 = icmp eq ptr %157, null
  br i1 %158, label %159, label %169

159:                                              ; preds = %152
  %160 = load ptr, ptr %4, align 8, !tbaa !11
  %161 = getelementptr inbounds nuw %struct.ssl_connection_st, ptr %160, i32 0, i32 24
  %162 = getelementptr inbounds nuw %struct.anon, ptr %161, i32 0, i32 14
  %163 = getelementptr inbounds nuw %struct.anon.0, ptr %162, i32 0, i32 6
  %164 = load ptr, ptr %163, align 8, !tbaa !103
  %165 = load ptr, ptr %4, align 8, !tbaa !11
  %166 = getelementptr inbounds nuw %struct.ssl_connection_st, ptr %165, i32 0, i32 54
  %167 = load ptr, ptr %166, align 8, !tbaa !97
  %168 = getelementptr inbounds nuw %struct.ssl_session_st, ptr %167, i32 0, i32 19
  store ptr %164, ptr %168, align 8, !tbaa !134
  br label %184

169:                                              ; preds = %152
  %170 = load ptr, ptr %4, align 8, !tbaa !11
  %171 = getelementptr inbounds nuw %struct.ssl_connection_st, ptr %170, i32 0, i32 54
  %172 = load ptr, ptr %171, align 8, !tbaa !97
  %173 = getelementptr inbounds nuw %struct.ssl_session_st, ptr %172, i32 0, i32 19
  %174 = load ptr, ptr %173, align 8, !tbaa !134
  %175 = load ptr, ptr %4, align 8, !tbaa !11
  %176 = getelementptr inbounds nuw %struct.ssl_connection_st, ptr %175, i32 0, i32 24
  %177 = getelementptr inbounds nuw %struct.anon, ptr %176, i32 0, i32 14
  %178 = getelementptr inbounds nuw %struct.anon.0, ptr %177, i32 0, i32 6
  %179 = load ptr, ptr %178, align 8, !tbaa !103
  %180 = icmp ne ptr %174, %179
  br i1 %180, label %181, label %183

181:                                              ; preds = %169
  call void @ERR_new()
  call void @ERR_set_debug(ptr noundef @.str.1, i32 noundef 819, ptr noundef @__func__.ossl_statem_server_pre_work)
  %182 = load ptr, ptr %4, align 8, !tbaa !11
  call void (ptr, i32, i32, ptr, ...) @ossl_statem_fatal(ptr noundef %182, i32 noundef 80, i32 noundef 786691, ptr noundef null)
  store i32 0, ptr %3, align 4
  store i32 1, ptr %8, align 4
  br label %230

183:                                              ; preds = %169
  br label %184

184:                                              ; preds = %183, %159
  %185 = load ptr, ptr %7, align 8, !tbaa !131
  %186 = getelementptr inbounds nuw %struct.ssl_st, ptr %185, i32 0, i32 3
  %187 = load ptr, ptr %186, align 8, !tbaa !135
  %188 = getelementptr inbounds nuw %struct.ssl_method_st, ptr %187, i32 0, i32 28
  %189 = load ptr, ptr %188, align 8, !tbaa !77
  %190 = getelementptr inbounds nuw %struct.ssl3_enc_method, ptr %189, i32 0, i32 0
  %191 = load ptr, ptr %190, align 8, !tbaa !136
  %192 = load ptr, ptr %4, align 8, !tbaa !11
  %193 = call i32 %191(ptr noundef %192)
  %194 = icmp ne i32 %193, 0
  br i1 %194, label %196, label %195

195:                                              ; preds = %184
  store i32 0, ptr %3, align 4
  store i32 1, ptr %8, align 4
  br label %230

196:                                              ; preds = %184
  %197 = load ptr, ptr %4, align 8, !tbaa !11
  %198 = getelementptr inbounds nuw %struct.ssl_connection_st, ptr %197, i32 0, i32 0
  %199 = getelementptr inbounds nuw %struct.ssl_st, ptr %198, i32 0, i32 3
  %200 = load ptr, ptr %199, align 8, !tbaa !17
  %201 = getelementptr inbounds nuw %struct.ssl_method_st, ptr %200, i32 0, i32 28
  %202 = load ptr, ptr %201, align 8, !tbaa !77
  %203 = getelementptr inbounds nuw %struct.ssl3_enc_method, ptr %202, i32 0, i32 10
  %204 = load i32, ptr %203, align 8, !tbaa !80
  %205 = and i32 %204, 8
  %206 = icmp ne i32 %205, 0
  br i1 %206, label %207, label %210

207:                                              ; preds = %196
  %208 = load ptr, ptr %6, align 8, !tbaa !15
  %209 = getelementptr inbounds nuw %struct.ossl_statem_st, ptr %208, i32 0, i32 12
  store i32 0, ptr %209, align 8, !tbaa !133
  br label %210

210:                                              ; preds = %207, %196
  store i32 2, ptr %3, align 4
  store i32 1, ptr %8, align 4
  br label %230

211:                                              ; preds = %2
  %212 = load ptr, ptr %4, align 8, !tbaa !11
  %213 = getelementptr inbounds nuw %struct.ssl_connection_st, ptr %212, i32 0, i32 15
  %214 = load i32, ptr %213, align 8, !tbaa !94
  %215 = icmp ne i32 %214, 9
  br i1 %215, label %216, label %224

216:                                              ; preds = %211
  %217 = load ptr, ptr %4, align 8, !tbaa !11
  %218 = getelementptr inbounds nuw %struct.ssl_connection_st, ptr %217, i32 0, i32 24
  %219 = getelementptr inbounds nuw %struct.anon, ptr %218, i32 0, i32 0
  %220 = load i64, ptr %219, align 8, !tbaa !96
  %221 = and i64 %220, 2048
  %222 = icmp eq i64 %221, 0
  br i1 %222, label %223, label %224

223:                                              ; preds = %216
  store i32 2, ptr %3, align 4
  store i32 1, ptr %8, align 4
  br label %230

224:                                              ; preds = %216, %211
  br label %225

225:                                              ; preds = %2, %224
  %226 = load ptr, ptr %4, align 8, !tbaa !11
  %227 = load i32, ptr %5, align 4, !tbaa !13
  %228 = call i32 @tls_finish_handshake(ptr noundef %226, i32 noundef %227, i32 noundef 1, i32 noundef 1)
  store i32 %228, ptr %3, align 4
  store i32 1, ptr %8, align 4
  br label %230

229:                                              ; preds = %151, %123, %65, %50, %32, %16
  store i32 2, ptr %3, align 4
  store i32 1, ptr %8, align 4
  br label %230

230:                                              ; preds = %229, %225, %223, %210, %195, %181, %105, %66
  call void @llvm.lifetime.end.p0(i64 8, ptr %7) #9
  call void @llvm.lifetime.end.p0(i64 8, ptr %6) #9
  %231 = load i32, ptr %3, align 4
  ret i32 %231
}