; Function Attrs: nounwind uwtable
define i32 @ossl_statem_server_pre_work(ptr noundef %0, i32 noundef %1) local_unnamed_addr #1 {
  %3 = getelementptr inbounds nuw i8, ptr %0, i64 172
  %4 = load i32, ptr %3, align 4, !tbaa !75
  switch i32 %4, label %.thread [
    i32 21, label %5
    i32 23, label %15
    i32 24, label %26
    i32 1, label %101
    i32 37, label %36
    i32 39, label %59
    i32 50, label %93
  ]

5:                                                ; preds = %2
  %6 = getelementptr inbounds nuw i8, ptr %0, i64 132
  store i32 0, ptr %6, align 4, !tbaa !122
  %7 = getelementptr inbounds nuw i8, ptr %0, i64 24
  %8 = load ptr, ptr %7, align 8, !tbaa !3
  %9 = getelementptr inbounds nuw i8, ptr %8, i64 216
  %10 = load ptr, ptr %9, align 8, !tbaa !69
  %11 = getelementptr inbounds nuw i8, ptr %10, i64 80
  %12 = load i32, ptr %11, align 8, !tbaa !72
  %13 = and i32 %12, 8
  %.not51 = icmp eq i32 %13, 0
  br i1 %.not51, label %.thread, label %14

14:                                               ; preds = %5
  tail call void @dtls1_clear_sent_buffer(ptr noundef nonnull %0) #12
  br label %.thread

15:                                               ; preds = %2
  %16 = getelementptr inbounds nuw i8, ptr %0, i64 132
  store i32 0, ptr %16, align 4, !tbaa !122
  %17 = getelementptr inbounds nuw i8, ptr %0, i64 24
  %18 = load ptr, ptr %17, align 8, !tbaa !3
  %19 = getelementptr inbounds nuw i8, ptr %18, i64 216
  %20 = load ptr, ptr %19, align 8, !tbaa !69
  %21 = getelementptr inbounds nuw i8, ptr %20, i64 80
  %22 = load i32, ptr %21, align 8, !tbaa !72
  %23 = and i32 %22, 8
  %.not50 = icmp eq i32 %23, 0
  br i1 %.not50, label %.thread, label %24

24:                                               ; preds = %15
  tail call void @dtls1_clear_sent_buffer(ptr noundef nonnull %0) #12
  %25 = getelementptr inbounds nuw i8, ptr %0, i64 200
  store i32 0, ptr %25, align 8, !tbaa !123
  br label %.thread

26:                                               ; preds = %2
  %27 = getelementptr inbounds nuw i8, ptr %0, i64 24
  %28 = load ptr, ptr %27, align 8, !tbaa !3
  %29 = getelementptr inbounds nuw i8, ptr %28, i64 216
  %30 = load ptr, ptr %29, align 8, !tbaa !69
  %31 = getelementptr inbounds nuw i8, ptr %30, i64 80
  %32 = load i32, ptr %31, align 8, !tbaa !72
  %33 = and i32 %32, 8
  %.not49 = icmp eq i32 %33, 0
  br i1 %.not49, label %.thread, label %34

34:                                               ; preds = %26
  %35 = getelementptr inbounds nuw i8, ptr %0, i64 200
  store i32 1, ptr %35, align 8, !tbaa !123
  br label %.thread

36:                                               ; preds = %2
  %37 = getelementptr inbounds nuw i8, ptr %0, i64 24
  %38 = load ptr, ptr %37, align 8, !tbaa !3
  %39 = getelementptr inbounds nuw i8, ptr %38, i64 216
  %40 = load ptr, ptr %39, align 8, !tbaa !69
  %41 = getelementptr inbounds nuw i8, ptr %40, i64 80
  %42 = load i32, ptr %41, align 8, !tbaa !72
  %43 = and i32 %42, 8
  %.not46 = icmp eq i32 %43, 0
  br i1 %.not46, label %44, label %57

44:                                               ; preds = %36
  %45 = load i32, ptr %38, align 8, !tbaa !74
  %46 = icmp slt i32 %45, 772
  %.not47 = icmp eq i32 %45, 65536
  %or.cond = or i1 %46, %.not47
  br i1 %or.cond, label %.thread, label %47

47:                                               ; preds = %44
  %48 = getelementptr inbounds nuw i8, ptr %0, i64 5464
  %49 = load i64, ptr %48, align 8, !tbaa !104
  %50 = icmp eq i64 %49, 0
  br i1 %50, label %51, label %.thread

51:                                               ; preds = %47
  %52 = getelementptr inbounds nuw i8, ptr %0, i64 2660
  %53 = load i32, ptr %52, align 4, !tbaa !98
  %54 = icmp eq i32 %53, 0
  br i1 %54, label %55, label %.thread

55:                                               ; preds = %51
  %56 = tail call i32 @tls_finish_handshake(ptr noundef nonnull %0, i32 noundef %1, i32 noundef 0, i32 noundef 0) #12
  br label %.thread

57:                                               ; preds = %36
  %58 = getelementptr inbounds nuw i8, ptr %0, i64 200
  store i32 0, ptr %58, align 8, !tbaa !123
  br label %.thread

59:                                               ; preds = %2
  %60 = getelementptr inbounds nuw i8, ptr %0, i64 24
  %61 = load ptr, ptr %60, align 8, !tbaa !3
  %62 = getelementptr inbounds nuw i8, ptr %61, i64 216
  %63 = load ptr, ptr %62, align 8, !tbaa !69
  %64 = getelementptr inbounds nuw i8, ptr %63, i64 80
  %65 = load i32, ptr %64, align 8, !tbaa !72
  %66 = and i32 %65, 8
  %.not41 = icmp eq i32 %66, 0
  br i1 %.not41, label %67, label %70

67:                                               ; preds = %59
  %68 = load i32, ptr %61, align 8, !tbaa !74
  %69 = icmp slt i32 %68, 772
  %.not42 = icmp eq i32 %68, 65536
  %or.cond52 = or i1 %69, %.not42
  br i1 %or.cond52, label %70, label %.thread

70:                                               ; preds = %67, %59
  %71 = getelementptr inbounds nuw i8, ptr %0, i64 2304
  %72 = load ptr, ptr %71, align 8, !tbaa !79
  %73 = getelementptr inbounds nuw i8, ptr %72, i64 760
  %74 = load ptr, ptr %73, align 8, !tbaa !124
  %75 = icmp eq ptr %74, null
  %76 = getelementptr inbounds nuw i8, ptr %0, i64 768
  %77 = load ptr, ptr %76, align 8, !tbaa !94
  br i1 %75, label %78, label %79

78:                                               ; preds = %70
  store ptr %77, ptr %73, align 8, !tbaa !124
  br label %81

79:                                               ; preds = %70
  %.not43 = icmp eq ptr %74, %77
  br i1 %.not43, label %81, label %80

80:                                               ; preds = %79
  tail call void @ERR_new() #12
  tail call void @ERR_set_debug(ptr noundef nonnull @.str.1, i32 noundef 819, ptr noundef nonnull @__func__.ossl_statem_server_pre_work) #12
  tail call void (ptr, i32, i32, ptr, ...) @ossl_statem_fatal(ptr noundef nonnull %0, i32 noundef 80, i32 noundef 786691, ptr noundef null) #12
  br label %.thread

81:                                               ; preds = %79, %78
  %82 = load ptr, ptr %63, align 8, !tbaa !125
  %83 = tail call i32 %82(ptr noundef nonnull %0) #12
  %.not44 = icmp eq i32 %83, 0
  br i1 %.not44, label %.thread, label %84

84:                                               ; preds = %81
  %85 = load ptr, ptr %60, align 8, !tbaa !3
  %86 = getelementptr inbounds nuw i8, ptr %85, i64 216
  %87 = load ptr, ptr %86, align 8, !tbaa !69
  %88 = getelementptr inbounds nuw i8, ptr %87, i64 80
  %89 = load i32, ptr %88, align 8, !tbaa !72
  %90 = and i32 %89, 8
  %.not45 = icmp eq i32 %90, 0
  br i1 %.not45, label %.thread, label %91

91:                                               ; preds = %84
  %92 = getelementptr inbounds nuw i8, ptr %0, i64 200
  store i32 0, ptr %92, align 8, !tbaa !123
  br label %.thread

93:                                               ; preds = %2
  %94 = getelementptr inbounds nuw i8, ptr %0, i64 240
  %95 = load i32, ptr %94, align 8, !tbaa !84
  %.not = icmp eq i32 %95, 9
  br i1 %.not, label %101, label %96

96:                                               ; preds = %93
  %97 = getelementptr inbounds nuw i8, ptr %0, i64 352
  %98 = load i64, ptr %97, align 8, !tbaa !86
  %99 = and i64 %98, 2048
  %100 = icmp eq i64 %99, 0
  br i1 %100, label %.thread, label %101

101:                                              ; preds = %2, %93, %96
  %102 = tail call i32 @tls_finish_handshake(ptr noundef nonnull %0, i32 noundef %1, i32 noundef 1, i32 noundef 1) #12
  br label %.thread

.thread:                                          ; preds = %44, %47, %51, %2, %14, %5, %24, %15, %34, %26, %57, %67, %96, %84, %91, %81, %101, %80, %55
  %.0 = phi i32 [ %102, %101 ], [ 0, %80 ], [ %56, %55 ], [ 0, %81 ], [ 2, %91 ], [ 2, %84 ], [ 2, %96 ], [ 2, %67 ], [ 2, %57 ], [ 2, %26 ], [ 2, %34 ], [ 2, %15 ], [ 2, %24 ], [ 2, %5 ], [ 2, %14 ], [ 2, %2 ], [ 2, %51 ], [ 2, %47 ], [ 2, %44 ]
  ret i32 %.0
}